target datalayout = "e-m:e-p270:32:32-p271:32:32-p272:64:64-i64:64-i128:128-f80:128-n8:16:32:64-S128"
target triple = "x86_64-pc-linux-gnu"

%struct.PressureCouplingOptions = type { i32, i32, i32, float, [3 x [3 x float]], [3 x [3 x float]], i32 }

; Function Attrs: mustprogress nounwind uwtable
define noundef zeroext i1 @_Z22shouldPreserveBoxShapeRK23PressureCouplingOptionsPA3_Kf(ptr noundef nonnull align 4 dereferenceable(92) %0, ptr noundef %1) #2 {
  %3 = alloca ptr, align 8
  %4 = alloca ptr, align 8
  store ptr %0, ptr %3, align 8, !tbaa !238
  store ptr %1, ptr %4, align 8, !tbaa !519
  %5 = load ptr, ptr %3, align 8, !tbaa !238
  %6 = getelementptr inbounds nuw %struct.PressureCouplingOptions, ptr %5, i32 0, i32 0
  %7 = load i32, ptr %6, align 4, !tbaa !240
  %8 = icmp ne i32 %7, 0
  br i1 %8, label %9, label %27

9:                                                ; preds = %2
  %10 = load ptr, ptr %4, align 8, !tbaa !519
  %11 = getelementptr inbounds [3 x float], ptr %10, i64 0
  %12 = getelementptr inbounds [3 x float], ptr %11, i64 0, i64 0
  %13 = load float, ptr %12, align 4, !tbaa !213
  %14 = fcmp oeq float %13, 0.000000e+00
  br i1 %14, label %15, label %27

15:                                               ; preds = %9
  %16 = load ptr, ptr %3, align 8, !tbaa !238
  %17 = getelementptr inbounds nuw %struct.PressureCouplingOptions, ptr %16, i32 0, i32 1
  %18 = load i32, ptr %17, align 4, !tbaa !241
  %19 = icmp eq i32 %18, 0
  br i1 %19, label %25, label %20

20:                                               ; preds = %15
  %21 = load ptr, ptr %3, align 8, !tbaa !238
  %22 = getelementptr inbounds nuw %struct.PressureCouplingOptions, ptr %21, i32 0, i32 1
  %23 = load i32, ptr %22, align 4, !tbaa !241
  %24 = icmp eq i32 %23, 1
  br label %25

25:                                               ; preds = %20, %15
  %26 = phi i1 [ true, %15 ], [ %24, %20 ]
  br label %27

27:                                               ; preds = %25, %9, %2
  %28 = phi i1 [ false, %9 ], [ false, %2 ], [ %26, %25 ]
  ret i1 %28
}