; Function Attrs: mustprogress nofree norecurse nosync nounwind willreturn memory(argmem: read) uwtable
define noundef zeroext i1 @_Z22shouldPreserveBoxShapeRK23PressureCouplingOptionsPA3_Kf(ptr noundef nonnull readonly align 4 captures(none) dereferenceable(92) %0, ptr noundef readonly captures(none) %1) local_unnamed_addr #15 {
  %3 = load i32, ptr %0, align 4, !tbaa !580
  %.not = icmp eq i32 %3, 0
  br i1 %.not, label %10, label %4

4:                                                ; preds = %2
  %5 = load float, ptr %1, align 4, !tbaa !243
  %6 = fcmp oeq float %5, 0.000000e+00
  br i1 %6, label %7, label %10

7:                                                ; preds = %4
  %8 = getelementptr inbounds nuw i8, ptr %0, i64 4
  %9 = load i32, ptr %8, align 4, !tbaa !561
  %spec.select = icmp ult i32 %9, 2
  br label %10

10:                                               ; preds = %7, %4, %2
  %11 = phi i1 [ false, %4 ], [ false, %2 ], [ %spec.select, %7 ]
  ret i1 %11
}